target datalayout = "e-m:e-p270:32:32-p271:32:32-p272:64:64-i64:64-i128:128-f80:128-n8:16:32:64-S128"
target triple = "x86_64-pc-linux-gnu"

%struct.stat = type { i64, i64, i64, i32, i32, i32, i32, i64, i64, i64, i64, %struct.timespec, %struct.timespec, %struct.timespec, [3 x i64] }
%struct.timespec = type { i64, i64 }
%class.HashtableTextDump = type { i32, ptr, ptr, ptr, ptr, i64, i32, i32 }

@.str.15 = private unnamed_addr constant [39 x i8] c"Unable to get hashtable dump file size\00", align 1
@.str.16 = private unnamed_addr constant [35 x i8] c"Unable to open hashtable dump file\00", align 1
@.str.17 = private unnamed_addr constant [34 x i8] c"Unable to map hashtable dump file\00", align 1

; Function Attrs: mustprogress nounwind uwtable
define hidden void @_ZN17HashtableTextDump4quitEPKcS1_(ptr noundef nonnull align 8 dereferenceable(56) %0, ptr noundef %1, ptr noundef %2) #1 align 2 {
  %4 = alloca ptr, align 8
  %5 = alloca ptr, align 8
  %6 = alloca ptr, align 8
  store ptr %0, ptr %4, align 8
  store ptr %1, ptr %5, align 8
  store ptr %2, ptr %6, align 8
  %7 = load ptr, ptr %5, align 8
  %8 = load ptr, ptr %6, align 8
  call void @_Z29vm_exit_during_initializationPKcS0_(ptr noundef %7, ptr noundef %8)
  ret void
}

; Function Attrs: mustprogress nounwind uwtable
define hidden void @_ZN17HashtableTextDumpC2EPKc(ptr noundef nonnull align 8 dereferenceable(56) %0, ptr noundef %1) unnamed_addr #1 align 2 {
  %3 = alloca ptr, align 8
  %4 = alloca ptr, align 8
  %5 = alloca %struct.stat, align 8
  store ptr %0, ptr %3, align 8
  store ptr %1, ptr %4, align 8
  %6 = load ptr, ptr %3, align 8
  %7 = getelementptr inbounds %class.HashtableTextDump, ptr %6, i32 0, i32 0
  store i32 -1, ptr %7, align 8
  %8 = load ptr, ptr %4, align 8
  %9 = call noundef i32 @_ZN2os4statEPKcP4stat(ptr noundef %8, ptr noundef %5)
  %10 = icmp ne i32 %9, 0
  br i1 %10, label %11, label %13

11:                                               ; preds = %2
  %12 = load ptr, ptr %4, align 8
  call void @_ZN17HashtableTextDump4quitEPKcS1_(ptr noundef nonnull align 8 dereferenceable(56) %6, ptr noundef @.str.15, ptr noundef %12)
  br label %13

13:                                               ; preds = %11, %2
  %14 = getelementptr inbounds %struct.stat, ptr %5, i32 0, i32 8
  %15 = load i64, ptr %14, align 8
  %16 = getelementptr inbounds %class.HashtableTextDump, ptr %6, i32 0, i32 5
  store i64 %15, ptr %16, align 8
  %17 = load ptr, ptr %4, align 8
  %18 = call noundef i32 @_ZN2os4openEPKcii(ptr noundef %17, i32 noundef 0, i32 noundef 0)
  %19 = getelementptr inbounds %class.HashtableTextDump, ptr %6, i32 0, i32 0
  store i32 %18, ptr %19, align 8
  %20 = getelementptr inbounds %class.HashtableTextDump, ptr %6, i32 0, i32 0
  %21 = load i32, ptr %20, align 8
  %22 = icmp slt i32 %21, 0
  br i1 %22, label %23, label %25

23:                                               ; preds = %13
  %24 = load ptr, ptr %4, align 8
  call void @_ZN17HashtableTextDump4quitEPKcS1_(ptr noundef nonnull align 8 dereferenceable(56) %6, ptr noundef @.str.16, ptr noundef %24)
  br label %25

25:                                               ; preds = %23, %13
  %26 = getelementptr inbounds %class.HashtableTextDump, ptr %6, i32 0, i32 0
  %27 = load i32, ptr %26, align 8
  %28 = load ptr, ptr %4, align 8
  %29 = getelementptr inbounds %class.HashtableTextDump, ptr %6, i32 0, i32 5
  %30 = load i64, ptr %29, align 8
  %31 = call noundef ptr @_ZN2os10map_memoryEiPKcmPcmbb8MEMFLAGS(i32 noundef %27, ptr noundef %28, i64 noundef 0, ptr noundef null, i64 noundef %30, i1 noundef zeroext true, i1 noundef zeroext false, i8 noundef zeroext 27)
  %32 = getelementptr inbounds %class.HashtableTextDump, ptr %6, i32 0, i32 1
  store ptr %31, ptr %32, align 8
  %33 = getelementptr inbounds %class.HashtableTextDump, ptr %6, i32 0, i32 1
  %34 = load ptr, ptr %33, align 8
  %35 = icmp eq ptr %34, null
  br i1 %35, label %36, label %38

36:                                               ; preds = %25
  %37 = load ptr, ptr %4, align 8
  call void @_ZN17HashtableTextDump4quitEPKcS1_(ptr noundef nonnull align 8 dereferenceable(56) %6, ptr noundef @.str.17, ptr noundef %37)
  br label %38

38:                                               ; preds = %36, %25
  %39 = getelementptr inbounds %class.HashtableTextDump, ptr %6, i32 0, i32 1
  %40 = load ptr, ptr %39, align 8
  %41 = getelementptr inbounds %class.HashtableTextDump, ptr %6, i32 0, i32 2
  store ptr %40, ptr %41, align 8
  %42 = getelementptr inbounds %class.HashtableTextDump, ptr %6, i32 0, i32 1
  %43 = load ptr, ptr %42, align 8
  %44 = getelementptr inbounds %struct.stat, ptr %5, i32 0, i32 8
  %45 = load i64, ptr %44, align 8
  %46 = getelementptr inbounds i8, ptr %43, i64 %45
  %47 = getelementptr inbounds %class.HashtableTextDump, ptr %6, i32 0, i32 3
  store ptr %46, ptr %47, align 8
  %48 = load ptr, ptr %4, align 8
  %49 = getelementptr inbounds %class.HashtableTextDump, ptr %6, i32 0, i32 4
  store ptr %48, ptr %49, align 8
  %50 = getelementptr inbounds %class.HashtableTextDump, ptr %6, i32 0, i32 6
  store i32 4, ptr %50, align 8
  %51 = getelementptr inbounds %class.HashtableTextDump, ptr %6, i32 0, i32 7
  store i32 1, ptr %51, align 4
  ret void
}