; Function Attrs: mustprogress nounwind uwtable
define hidden void @_ZN17HashtableTextDumpC2EPKc(ptr nocapture noundef nonnull align 8 dereferenceable(56) %0, ptr noundef %1) unnamed_addr #0 align 2 {
  %3 = alloca %struct.stat, align 8
  store i32 -1, ptr %0, align 8
  %4 = call noundef i32 @_ZN2os4statEPKcP4stat(ptr noundef %1, ptr noundef nonnull %3) #14
  %.not = icmp eq i32 %4, 0
  br i1 %.not, label %6, label %5

5:                                                ; preds = %2
  call void @_Z29vm_exit_during_initializationPKcS0_(ptr noundef nonnull @.str.15, ptr noundef %1) #14
  br label %6

6:                                                ; preds = %5, %2
  %7 = getelementptr inbounds i8, ptr %3, i64 48
  %8 = load i64, ptr %7, align 8
  %9 = getelementptr inbounds i8, ptr %0, i64 40
  store i64 %8, ptr %9, align 8
  %10 = call noundef i32 @_ZN2os4openEPKcii(ptr noundef %1, i32 noundef 0, i32 noundef 0) #14
  store i32 %10, ptr %0, align 8
  %11 = icmp slt i32 %10, 0
  br i1 %11, label %12, label %13

12:                                               ; preds = %6
  call void @_Z29vm_exit_during_initializationPKcS0_(ptr noundef nonnull @.str.16, ptr noundef %1) #14
  %.pre = load i32, ptr %0, align 8
  br label %13

13:                                               ; preds = %12, %6
  %14 = phi i32 [ %.pre, %12 ], [ %10, %6 ]
  %15 = load i64, ptr %9, align 8
  %16 = call noundef ptr @_ZN2os10map_memoryEiPKcmPcmbb8MEMFLAGS(i32 noundef %14, ptr noundef %1, i64 noundef 0, ptr noundef null, i64 noundef %15, i1 noundef zeroext true, i1 noundef zeroext false, i8 noundef zeroext 27) #14
  %17 = getelementptr inbounds i8, ptr %0, i64 8
  store ptr %16, ptr %17, align 8
  %18 = icmp eq ptr %16, null
  br i1 %18, label %19, label %20

19:                                               ; preds = %13
  call void @_Z29vm_exit_during_initializationPKcS0_(ptr noundef nonnull @.str.17, ptr noundef %1) #14
  %.pre8 = load ptr, ptr %17, align 8
  br label %20

20:                                               ; preds = %19, %13
  %21 = phi ptr [ %.pre8, %19 ], [ %16, %13 ]
  %22 = getelementptr inbounds i8, ptr %0, i64 16
  store ptr %21, ptr %22, align 8
  %23 = load i64, ptr %7, align 8
  %24 = getelementptr inbounds i8, ptr %21, i64 %23
  %25 = getelementptr inbounds i8, ptr %0, i64 24
  store ptr %24, ptr %25, align 8
  %26 = getelementptr inbounds i8, ptr %0, i64 32
  store ptr %1, ptr %26, align 8
  %27 = getelementptr inbounds i8, ptr %0, i64 48
  store i32 4, ptr %27, align 8
  %28 = getelementptr inbounds i8, ptr %0, i64 52
  store i32 1, ptr %28, align 4
  ret void
}